target datalayout = "e-m:e-p270:32:32-p271:32:32-p272:64:64-i64:64-i128:128-f80:128-n8:16:32:64-S128"
target triple = "x86_64-pc-linux-gnu"

%struct.ForEachState = type { ptr, i32 }
%struct.List = type { i32, i32, i32, ptr, [0 x %union.ListCell] }
%union.ListCell = type { ptr }

@.str.1 = private unnamed_addr constant [18 x i8] c"publicationcmds.c\00", align 1
@InterruptPending = external global i32, align 4
@.str.55 = private unnamed_addr constant [34 x i8] c"schema with OID %u does not exist\00", align 1
@__func__.LockSchemaList = private unnamed_addr constant [15 x i8] c"LockSchemaList\00", align 1

; Function Attrs: inlinehint nounwind uwtable
define internal i64 @ObjectIdGetDatum(i32 noundef %0) #3 {
  %2 = alloca i32, align 4
  store i32 %0, ptr %2, align 4
  %3 = load i32, ptr %2, align 4
  %4 = zext i32 %3 to i64
  ret i64 %4
}

; Function Attrs: nounwind uwtable
define internal void @LockSchemaList(ptr noundef %0) #0 {
  %2 = alloca ptr, align 8
  %3 = alloca ptr, align 8
  %4 = alloca %struct.ForEachState, align 8
  %5 = alloca i32, align 4
  store ptr %0, ptr %2, align 8
  call void @llvm.lifetime.start.p0(i64 8, ptr %3) #10
  call void @llvm.lifetime.start.p0(i64 16, ptr %4) #10
  %6 = getelementptr inbounds nuw %struct.ForEachState, ptr %4, i32 0, i32 0
  %7 = load ptr, ptr %2, align 8
  store ptr %7, ptr %6, align 8
  %8 = getelementptr inbounds nuw %struct.ForEachState, ptr %4, i32 0, i32 1
  store i32 0, ptr %8, align 8
  %9 = getelementptr i8, ptr %4, i64 12
  call void @llvm.memset.p0.i64(ptr align 4 %9, i8 0, i64 4, i1 false)
  br label %10

10:                                               ; preds = %68, %1
  %11 = getelementptr inbounds nuw %struct.ForEachState, ptr %4, i32 0, i32 0
  %12 = load ptr, ptr %11, align 8
  %13 = icmp ne ptr %12, null
  br i1 %13, label %14, label %31

14:                                               ; preds = %10
  %15 = getelementptr inbounds nuw %struct.ForEachState, ptr %4, i32 0, i32 1
  %16 = load i32, ptr %15, align 8
  %17 = getelementptr inbounds nuw %struct.ForEachState, ptr %4, i32 0, i32 0
  %18 = load ptr, ptr %17, align 8
  %19 = getelementptr inbounds nuw %struct.List, ptr %18, i32 0, i32 1
  %20 = load i32, ptr %19, align 4
  %21 = icmp slt i32 %16, %20
  br i1 %21, label %22, label %31

22:                                               ; preds = %14
  %23 = getelementptr inbounds nuw %struct.ForEachState, ptr %4, i32 0, i32 0
  %24 = load ptr, ptr %23, align 8
  %25 = getelementptr inbounds nuw %struct.List, ptr %24, i32 0, i32 3
  %26 = load ptr, ptr %25, align 8
  %27 = getelementptr inbounds nuw %struct.ForEachState, ptr %4, i32 0, i32 1
  %28 = load i32, ptr %27, align 8
  %29 = sext i32 %28 to i64
  %30 = getelementptr inbounds %union.ListCell, ptr %26, i64 %29
  store ptr %30, ptr %3, align 8
  br label %32

31:                                               ; preds = %14, %10
  store ptr null, ptr %3, align 8
  br label %32

32:                                               ; preds = %31, %22
  %33 = phi i32 [ 1, %22 ], [ 0, %31 ]
  %34 = icmp ne i32 %33, 0
  br i1 %34, label %36, label %35

35:                                               ; preds = %32
  call void @llvm.lifetime.end.p0(i64 16, ptr %4) #10
  br label %72

36:                                               ; preds = %32
  call void @llvm.lifetime.start.p0(i64 4, ptr %5) #10
  %37 = load ptr, ptr %3, align 8
  %38 = load i32, ptr %37, align 8
  store i32 %38, ptr %5, align 4
  br label %39

39:                                               ; preds = %36
  %40 = load volatile i32, ptr @InterruptPending, align 4
  %41 = icmp ne i32 %40, 0
  %42 = zext i1 %41 to i32
  %43 = sext i32 %42 to i64
  %44 = call i64 @llvm.expect.i64(i64 %43, i64 0)
  %45 = icmp ne i64 %44, 0
  br i1 %45, label %46, label %47

46:                                               ; preds = %39
  call void @ProcessInterrupts()
  br label %47

47:                                               ; preds = %46, %39
  br label %48

48:                                               ; preds = %47
  br label %49

49:                                               ; preds = %48
  %50 = load i32, ptr %5, align 4
  call void @LockDatabaseObject(i32 noundef 2615, i32 noundef %50, i16 noundef zeroext 0, i32 noundef 1)
  %51 = load i32, ptr %5, align 4
  %52 = call i64 @ObjectIdGetDatum(i32 noundef %51)
  %53 = call zeroext i1 @SearchSysCacheExists(i32 noundef 38, i64 noundef %52, i64 noundef 0, i64 noundef 0, i64 noundef 0)
  br i1 %53, label %67, label %54

54:                                               ; preds = %49
  br label %55

55:                                               ; preds = %54
  br i1 true, label %56, label %58

56:                                               ; preds = %55
  %57 = call zeroext i1 @errstart_cold(i32 noundef 21, ptr noundef null) #11
  br i1 %57, label %60, label %64

58:                                               ; preds = %55
  %59 = call zeroext i1 @errstart(i32 noundef 21, ptr noundef null)
  br i1 %59, label %60, label %64

60:                                               ; preds = %58, %56
  %61 = call i32 @errcode(i32 noundef 1411)
  %62 = load i32, ptr %5, align 4
  %63 = call i32 (ptr, ...) @errmsg(ptr noundef @.str.55, i32 noundef %62)
  call void @errfinish(ptr noundef @.str.1, i32 noundef 1807, ptr noundef @__func__.LockSchemaList)
  br label %64

64:                                               ; preds = %60, %58, %56
  unreachable

65:                                               ; No predecessors!
  br label %66

66:                                               ; preds = %65
  br label %67

67:                                               ; preds = %66, %49
  call void @llvm.lifetime.end.p0(i64 4, ptr %5) #10
  br label %68

68:                                               ; preds = %67
  %69 = getelementptr inbounds nuw %struct.ForEachState, ptr %4, i32 0, i32 1
  %70 = load i32, ptr %69, align 8
  %71 = add i32 %70, 1
  store i32 %71, ptr %69, align 8
  br label %10, !llvm.loop !17

72:                                               ; preds = %35
  call void @llvm.lifetime.end.p0(i64 8, ptr %3) #10
  ret void
}