; Function Attrs: nounwind uwtable
define internal fastcc void @LockSchemaList(ptr noundef readonly captures(address_is_null) %0) unnamed_addr #0 {
  %.not = icmp eq ptr %0, null
  br i1 %.not, label %._crit_edge, label %.lr.ph

.lr.ph:                                           ; preds = %1
  %2 = getelementptr inbounds nuw i8, ptr %0, i64 4
  %3 = getelementptr inbounds nuw i8, ptr %0, i64 16
  %4 = load i32, ptr %2, align 4
  %5 = icmp sgt i32 %4, 0
  br i1 %5, label %.lr.ph16, label %._crit_edge

6:                                                ; preds = %15
  %indvars.iv.next = add nuw nsw i64 %indvars.iv, 1
  %7 = load i32, ptr %2, align 4
  %8 = sext i32 %7 to i64
  %9 = icmp slt i64 %indvars.iv.next, %8
  br i1 %9, label %.lr.ph16, label %._crit_edge

._crit_edge:                                      ; preds = %6, %.lr.ph, %1
  ret void

.lr.ph16:                                         ; preds = %.lr.ph, %6
  %indvars.iv = phi i64 [ %indvars.iv.next, %6 ], [ 0, %.lr.ph ]
  %10 = load ptr, ptr %3, align 8
  %11 = getelementptr inbounds nuw %union.ListCell, ptr %10, i64 %indvars.iv
  %12 = load i32, ptr %11, align 8
  %13 = load volatile i32, ptr @InterruptPending, align 4
  %.not10 = icmp eq i32 %13, 0
  br i1 %.not10, label %15, label %14, !prof !9

14:                                               ; preds = %.lr.ph16
  tail call void @ProcessInterrupts() #8
  br label %15

15:                                               ; preds = %14, %.lr.ph16
  tail call void @LockDatabaseObject(i32 noundef 2615, i32 noundef %12, i16 noundef zeroext 0, i32 noundef 1) #8
  %16 = zext i32 %12 to i64
  %17 = tail call zeroext i1 @SearchSysCacheExists(i32 noundef 38, i64 noundef %16, i64 noundef 0, i64 noundef 0, i64 noundef 0) #8
  br i1 %17, label %6, label %.split

.split:                                           ; preds = %15
  %18 = tail call zeroext i1 @errstart_cold(i32 noundef 21, ptr noundef null) #9
  tail call void @llvm.assume(i1 %18)
  %19 = tail call i32 @errcode(i32 noundef 1411) #8
  %20 = tail call i32 (ptr, ...) @errmsg(ptr noundef nonnull @.str.55, i32 noundef %12) #8
  tail call void @errfinish(ptr noundef nonnull @.str.1, i32 noundef 1807, ptr noundef nonnull @__func__.LockSchemaList) #8
  unreachable
}